
GccApp329pLearning.elf:     file format elf32-avr

Sections:
Idx Name          Size      VMA       LMA       File off  Algn
  0 .data         00000000  00800100  00800100  000005aa  2**0
                  CONTENTS, ALLOC, LOAD, DATA
  1 .text         00000556  00000000  00000000  00000054  2**1
                  CONTENTS, ALLOC, LOAD, READONLY, CODE
  2 .comment      00000030  00000000  00000000  000005aa  2**0
                  CONTENTS, READONLY
  3 .note.gnu.avr.deviceinfo 00000040  00000000  00000000  000005dc  2**2
                  CONTENTS, READONLY
  4 .debug_aranges 00000130  00000000  00000000  0000061c  2**0
                  CONTENTS, READONLY, DEBUGGING
  5 .debug_info   00004bc1  00000000  00000000  0000074c  2**0
                  CONTENTS, READONLY, DEBUGGING
  6 .debug_abbrev 00000975  00000000  00000000  0000530d  2**0
                  CONTENTS, READONLY, DEBUGGING
  7 .debug_line   00001848  00000000  00000000  00005c82  2**0
                  CONTENTS, READONLY, DEBUGGING
  8 .debug_frame  0000020c  00000000  00000000  000074cc  2**2
                  CONTENTS, READONLY, DEBUGGING
  9 .debug_str    000004bc  00000000  00000000  000076d8  2**0
                  CONTENTS, READONLY, DEBUGGING
 10 .debug_loc    000041ae  00000000  00000000  00007b94  2**0
                  CONTENTS, READONLY, DEBUGGING
 11 .debug_ranges 00000100  00000000  00000000  0000bd42  2**0
                  CONTENTS, READONLY, DEBUGGING

Disassembly of section .text:

00000000 <__vectors>:
   0:	0c 94 2e 00 	jmp	0x5c	; 0x5c <__ctors_end>
   4:	0c 94 38 00 	jmp	0x70	; 0x70 <__bad_interrupt>
   8:	0c 94 38 00 	jmp	0x70	; 0x70 <__bad_interrupt>
   c:	0c 94 38 00 	jmp	0x70	; 0x70 <__bad_interrupt>
  10:	0c 94 38 00 	jmp	0x70	; 0x70 <__bad_interrupt>
  14:	0c 94 38 00 	jmp	0x70	; 0x70 <__bad_interrupt>
  18:	0c 94 38 00 	jmp	0x70	; 0x70 <__bad_interrupt>
  1c:	0c 94 38 00 	jmp	0x70	; 0x70 <__bad_interrupt>
  20:	0c 94 38 00 	jmp	0x70	; 0x70 <__bad_interrupt>
  24:	0c 94 38 00 	jmp	0x70	; 0x70 <__bad_interrupt>
  28:	0c 94 38 00 	jmp	0x70	; 0x70 <__bad_interrupt>
  2c:	0c 94 38 00 	jmp	0x70	; 0x70 <__bad_interrupt>
  30:	0c 94 38 00 	jmp	0x70	; 0x70 <__bad_interrupt>
  34:	0c 94 38 00 	jmp	0x70	; 0x70 <__bad_interrupt>
  38:	0c 94 38 00 	jmp	0x70	; 0x70 <__bad_interrupt>
  3c:	0c 94 38 00 	jmp	0x70	; 0x70 <__bad_interrupt>
  40:	0c 94 38 00 	jmp	0x70	; 0x70 <__bad_interrupt>
  44:	0c 94 38 00 	jmp	0x70	; 0x70 <__bad_interrupt>
  48:	0c 94 38 00 	jmp	0x70	; 0x70 <__bad_interrupt>
  4c:	0c 94 38 00 	jmp	0x70	; 0x70 <__bad_interrupt>
  50:	0c 94 38 00 	jmp	0x70	; 0x70 <__bad_interrupt>
  54:	0c 94 38 00 	jmp	0x70	; 0x70 <__bad_interrupt>
  58:	0c 94 38 00 	jmp	0x70	; 0x70 <__bad_interrupt>

0000005c <__ctors_end>:
  5c:	11 24       	eor	r1, r1
  5e:	1f be       	out	0x3f, r1	; 63
  60:	cf ef       	ldi	r28, 0xFF	; 255
  62:	d8 e0       	ldi	r29, 0x08	; 8
  64:	de bf       	out	0x3e, r29	; 62
  66:	cd bf       	out	0x3d, r28	; 61
  68:	0e 94 2d 02 	call	0x45a	; 0x45a <main>
  6c:	0c 94 a9 02 	jmp	0x552	; 0x552 <_exit>

00000070 <__bad_interrupt>:
  70:	0c 94 00 00 	jmp	0	; 0x0 <__vectors>

00000074 <tetris>:

#include "music.h"

int tetris(){
	
	setupTimer0FreqGen(0);
  74:	80 e0       	ldi	r24, 0x00	; 0
  76:	90 e0       	ldi	r25, 0x00	; 0
  78:	0e 94 30 02 	call	0x460	; 0x460 <setupTimer0FreqGen>
	
	// 1
	e4();
  7c:	0e 94 75 02 	call	0x4ea	; 0x4ea <e4>
	#else
		//round up by default
		__ticks_dc = (uint32_t)(ceil(fabs(__tmp)));
	#endif

	__builtin_avr_delay_cycles(__ticks_dc);
  80:	2f ef       	ldi	r18, 0xFF	; 255
  82:	87 e8       	ldi	r24, 0x87	; 135
  84:	93 e1       	ldi	r25, 0x13	; 19
  86:	21 50       	subi	r18, 0x01	; 1
  88:	80 40       	sbci	r24, 0x00	; 0
  8a:	90 40       	sbci	r25, 0x00	; 0
  8c:	e1 f7       	brne	.-8      	; 0x86 <tetris+0x12>
  8e:	00 c0       	rjmp	.+0      	; 0x90 <tetris+0x1c>
  90:	00 00       	nop
	_delay_ms(MS_BLACK);
	b3();
  92:	0e 94 54 02 	call	0x4a8	; 0x4a8 <b3>
  96:	2f ef       	ldi	r18, 0xFF	; 255
  98:	83 ec       	ldi	r24, 0xC3	; 195
  9a:	99 e0       	ldi	r25, 0x09	; 9
  9c:	21 50       	subi	r18, 0x01	; 1
  9e:	80 40       	sbci	r24, 0x00	; 0
  a0:	90 40       	sbci	r25, 0x00	; 0
  a2:	e1 f7       	brne	.-8      	; 0x9c <tetris+0x28>
  a4:	00 c0       	rjmp	.+0      	; 0xa6 <tetris+0x32>
  a6:	00 00       	nop
	_delay_ms(MS_HALF);
	c4();
  a8:	0e 94 5f 02 	call	0x4be	; 0x4be <c4>
  ac:	2f ef       	ldi	r18, 0xFF	; 255
  ae:	83 ec       	ldi	r24, 0xC3	; 195
  b0:	99 e0       	ldi	r25, 0x09	; 9
  b2:	21 50       	subi	r18, 0x01	; 1
  b4:	80 40       	sbci	r24, 0x00	; 0
  b6:	90 40       	sbci	r25, 0x00	; 0
  b8:	e1 f7       	brne	.-8      	; 0xb2 <tetris+0x3e>
  ba:	00 c0       	rjmp	.+0      	; 0xbc <tetris+0x48>
  bc:	00 00       	nop
	_delay_ms(MS_HALF);
	d4();
  be:	0e 94 6a 02 	call	0x4d4	; 0x4d4 <d4>
  c2:	2f ef       	ldi	r18, 0xFF	; 255
  c4:	87 e8       	ldi	r24, 0x87	; 135
  c6:	93 e1       	ldi	r25, 0x13	; 19
  c8:	21 50       	subi	r18, 0x01	; 1
  ca:	80 40       	sbci	r24, 0x00	; 0
  cc:	90 40       	sbci	r25, 0x00	; 0
  ce:	e1 f7       	brne	.-8      	; 0xc8 <tetris+0x54>
  d0:	00 c0       	rjmp	.+0      	; 0xd2 <tetris+0x5e>
  d2:	00 00       	nop
	_delay_ms(MS_BLACK);
	c4();
  d4:	0e 94 5f 02 	call	0x4be	; 0x4be <c4>
  d8:	2f ef       	ldi	r18, 0xFF	; 255
  da:	83 ec       	ldi	r24, 0xC3	; 195
  dc:	99 e0       	ldi	r25, 0x09	; 9
  de:	21 50       	subi	r18, 0x01	; 1
  e0:	80 40       	sbci	r24, 0x00	; 0
  e2:	90 40       	sbci	r25, 0x00	; 0
  e4:	e1 f7       	brne	.-8      	; 0xde <tetris+0x6a>
  e6:	00 c0       	rjmp	.+0      	; 0xe8 <tetris+0x74>
  e8:	00 00       	nop
	_delay_ms(MS_HALF);
	b3();
  ea:	0e 94 54 02 	call	0x4a8	; 0x4a8 <b3>
  ee:	2f ef       	ldi	r18, 0xFF	; 255
  f0:	83 ec       	ldi	r24, 0xC3	; 195
  f2:	99 e0       	ldi	r25, 0x09	; 9
  f4:	21 50       	subi	r18, 0x01	; 1
  f6:	80 40       	sbci	r24, 0x00	; 0
  f8:	90 40       	sbci	r25, 0x00	; 0
  fa:	e1 f7       	brne	.-8      	; 0xf4 <tetris+0x80>
  fc:	00 c0       	rjmp	.+0      	; 0xfe <tetris+0x8a>
  fe:	00 00       	nop
	_delay_ms(MS_HALF);
	// 2
	a3();
 100:	0e 94 49 02 	call	0x492	; 0x492 <a3>
 104:	2f ef       	ldi	r18, 0xFF	; 255
 106:	87 e8       	ldi	r24, 0x87	; 135
 108:	93 e1       	ldi	r25, 0x13	; 19
 10a:	21 50       	subi	r18, 0x01	; 1
 10c:	80 40       	sbci	r24, 0x00	; 0
 10e:	90 40       	sbci	r25, 0x00	; 0
 110:	e1 f7       	brne	.-8      	; 0x10a <tetris+0x96>
 112:	00 c0       	rjmp	.+0      	; 0x114 <tetris+0xa0>
 114:	00 00       	nop
	_delay_ms(MS_BLACK);
	silence();
 116:	0e 94 a1 02 	call	0x542	; 0x542 <silence>
 11a:	2f ef       	ldi	r18, 0xFF	; 255
 11c:	89 ef       	ldi	r24, 0xF9	; 249
 11e:	90 e0       	ldi	r25, 0x00	; 0
 120:	21 50       	subi	r18, 0x01	; 1
 122:	80 40       	sbci	r24, 0x00	; 0
 124:	90 40       	sbci	r25, 0x00	; 0
 126:	e1 f7       	brne	.-8      	; 0x120 <tetris+0xac>
 128:	00 c0       	rjmp	.+0      	; 0x12a <tetris+0xb6>
 12a:	00 00       	nop
	_delay_ms(20);
	sound();
 12c:	0e 94 a5 02 	call	0x54a	; 0x54a <sound>
	a3();
 130:	0e 94 49 02 	call	0x492	; 0x492 <a3>
 134:	2f ef       	ldi	r18, 0xFF	; 255
 136:	83 ec       	ldi	r24, 0xC3	; 195
 138:	99 e0       	ldi	r25, 0x09	; 9
 13a:	21 50       	subi	r18, 0x01	; 1
 13c:	80 40       	sbci	r24, 0x00	; 0
 13e:	90 40       	sbci	r25, 0x00	; 0
 140:	e1 f7       	brne	.-8      	; 0x13a <tetris+0xc6>
 142:	00 c0       	rjmp	.+0      	; 0x144 <tetris+0xd0>
 144:	00 00       	nop
	_delay_ms(MS_HALF);
	c4();
 146:	0e 94 5f 02 	call	0x4be	; 0x4be <c4>
 14a:	2f ef       	ldi	r18, 0xFF	; 255
 14c:	83 ec       	ldi	r24, 0xC3	; 195
 14e:	99 e0       	ldi	r25, 0x09	; 9
 150:	21 50       	subi	r18, 0x01	; 1
 152:	80 40       	sbci	r24, 0x00	; 0
 154:	90 40       	sbci	r25, 0x00	; 0
 156:	e1 f7       	brne	.-8      	; 0x150 <tetris+0xdc>
 158:	00 c0       	rjmp	.+0      	; 0x15a <tetris+0xe6>
 15a:	00 00       	nop
	_delay_ms(MS_HALF);
	e4();
 15c:	0e 94 75 02 	call	0x4ea	; 0x4ea <e4>
 160:	2f ef       	ldi	r18, 0xFF	; 255
 162:	87 e8       	ldi	r24, 0x87	; 135
 164:	93 e1       	ldi	r25, 0x13	; 19
 166:	21 50       	subi	r18, 0x01	; 1
 168:	80 40       	sbci	r24, 0x00	; 0
 16a:	90 40       	sbci	r25, 0x00	; 0
 16c:	e1 f7       	brne	.-8      	; 0x166 <tetris+0xf2>
 16e:	00 c0       	rjmp	.+0      	; 0x170 <tetris+0xfc>
 170:	00 00       	nop
	_delay_ms(MS_BLACK);
	d4();
 172:	0e 94 6a 02 	call	0x4d4	; 0x4d4 <d4>
 176:	2f ef       	ldi	r18, 0xFF	; 255
 178:	83 ec       	ldi	r24, 0xC3	; 195
 17a:	99 e0       	ldi	r25, 0x09	; 9
 17c:	21 50       	subi	r18, 0x01	; 1
 17e:	80 40       	sbci	r24, 0x00	; 0
 180:	90 40       	sbci	r25, 0x00	; 0
 182:	e1 f7       	brne	.-8      	; 0x17c <tetris+0x108>
 184:	00 c0       	rjmp	.+0      	; 0x186 <tetris+0x112>
 186:	00 00       	nop
	_delay_ms(MS_HALF);
	c4();
 188:	0e 94 5f 02 	call	0x4be	; 0x4be <c4>
 18c:	2f ef       	ldi	r18, 0xFF	; 255
 18e:	83 ec       	ldi	r24, 0xC3	; 195
 190:	99 e0       	ldi	r25, 0x09	; 9
 192:	21 50       	subi	r18, 0x01	; 1
 194:	80 40       	sbci	r24, 0x00	; 0
 196:	90 40       	sbci	r25, 0x00	; 0
 198:	e1 f7       	brne	.-8      	; 0x192 <tetris+0x11e>
 19a:	00 c0       	rjmp	.+0      	; 0x19c <tetris+0x128>
 19c:	00 00       	nop
	_delay_ms(MS_HALF);
	// 3
	b3();
 19e:	0e 94 54 02 	call	0x4a8	; 0x4a8 <b3>
 1a2:	2f ef       	ldi	r18, 0xFF	; 255
 1a4:	87 e8       	ldi	r24, 0x87	; 135
 1a6:	93 e1       	ldi	r25, 0x13	; 19
 1a8:	21 50       	subi	r18, 0x01	; 1
 1aa:	80 40       	sbci	r24, 0x00	; 0
 1ac:	90 40       	sbci	r25, 0x00	; 0
 1ae:	e1 f7       	brne	.-8      	; 0x1a8 <tetris+0x134>
 1b0:	00 c0       	rjmp	.+0      	; 0x1b2 <tetris+0x13e>
 1b2:	00 00       	nop
	_delay_ms(MS_BLACK);
	silence();
 1b4:	0e 94 a1 02 	call	0x542	; 0x542 <silence>
 1b8:	2f ef       	ldi	r18, 0xFF	; 255
 1ba:	89 ef       	ldi	r24, 0xF9	; 249
 1bc:	90 e0       	ldi	r25, 0x00	; 0
 1be:	21 50       	subi	r18, 0x01	; 1
 1c0:	80 40       	sbci	r24, 0x00	; 0
 1c2:	90 40       	sbci	r25, 0x00	; 0
 1c4:	e1 f7       	brne	.-8      	; 0x1be <tetris+0x14a>
 1c6:	00 c0       	rjmp	.+0      	; 0x1c8 <tetris+0x154>
 1c8:	00 00       	nop
	_delay_ms(20);
	sound();
 1ca:	0e 94 a5 02 	call	0x54a	; 0x54a <sound>
	b3();
 1ce:	0e 94 54 02 	call	0x4a8	; 0x4a8 <b3>
 1d2:	2f ef       	ldi	r18, 0xFF	; 255
 1d4:	83 ec       	ldi	r24, 0xC3	; 195
 1d6:	99 e0       	ldi	r25, 0x09	; 9
 1d8:	21 50       	subi	r18, 0x01	; 1
 1da:	80 40       	sbci	r24, 0x00	; 0
 1dc:	90 40       	sbci	r25, 0x00	; 0
 1de:	e1 f7       	brne	.-8      	; 0x1d8 <tetris+0x164>
 1e0:	00 c0       	rjmp	.+0      	; 0x1e2 <tetris+0x16e>
 1e2:	00 00       	nop
	_delay_ms(MS_HALF);
	c4();
 1e4:	0e 94 5f 02 	call	0x4be	; 0x4be <c4>
 1e8:	2f ef       	ldi	r18, 0xFF	; 255
 1ea:	83 ec       	ldi	r24, 0xC3	; 195
 1ec:	99 e0       	ldi	r25, 0x09	; 9
 1ee:	21 50       	subi	r18, 0x01	; 1
 1f0:	80 40       	sbci	r24, 0x00	; 0
 1f2:	90 40       	sbci	r25, 0x00	; 0
 1f4:	e1 f7       	brne	.-8      	; 0x1ee <tetris+0x17a>
 1f6:	00 c0       	rjmp	.+0      	; 0x1f8 <tetris+0x184>
 1f8:	00 00       	nop
	_delay_ms(MS_HALF);
	d4();
 1fa:	0e 94 6a 02 	call	0x4d4	; 0x4d4 <d4>
 1fe:	2f ef       	ldi	r18, 0xFF	; 255
 200:	87 e8       	ldi	r24, 0x87	; 135
 202:	93 e1       	ldi	r25, 0x13	; 19
 204:	21 50       	subi	r18, 0x01	; 1
 206:	80 40       	sbci	r24, 0x00	; 0
 208:	90 40       	sbci	r25, 0x00	; 0
 20a:	e1 f7       	brne	.-8      	; 0x204 <tetris+0x190>
 20c:	00 c0       	rjmp	.+0      	; 0x20e <tetris+0x19a>
 20e:	00 00       	nop
	_delay_ms(MS_BLACK);
	e4();
 210:	0e 94 75 02 	call	0x4ea	; 0x4ea <e4>
 214:	2f ef       	ldi	r18, 0xFF	; 255
 216:	87 e8       	ldi	r24, 0x87	; 135
 218:	93 e1       	ldi	r25, 0x13	; 19
 21a:	21 50       	subi	r18, 0x01	; 1
 21c:	80 40       	sbci	r24, 0x00	; 0
 21e:	90 40       	sbci	r25, 0x00	; 0
 220:	e1 f7       	brne	.-8      	; 0x21a <tetris+0x1a6>
 222:	00 c0       	rjmp	.+0      	; 0x224 <tetris+0x1b0>
 224:	00 00       	nop
	_delay_ms(MS_BLACK);
	// 4
	c4();
 226:	0e 94 5f 02 	call	0x4be	; 0x4be <c4>
 22a:	2f ef       	ldi	r18, 0xFF	; 255
 22c:	87 e8       	ldi	r24, 0x87	; 135
 22e:	93 e1       	ldi	r25, 0x13	; 19
 230:	21 50       	subi	r18, 0x01	; 1
 232:	80 40       	sbci	r24, 0x00	; 0
 234:	90 40       	sbci	r25, 0x00	; 0
 236:	e1 f7       	brne	.-8      	; 0x230 <tetris+0x1bc>
 238:	00 c0       	rjmp	.+0      	; 0x23a <tetris+0x1c6>
 23a:	00 00       	nop
	_delay_ms(MS_BLACK);
	a3();
 23c:	0e 94 49 02 	call	0x492	; 0x492 <a3>
 240:	2f ef       	ldi	r18, 0xFF	; 255
 242:	87 e8       	ldi	r24, 0x87	; 135
 244:	93 e1       	ldi	r25, 0x13	; 19
 246:	21 50       	subi	r18, 0x01	; 1
 248:	80 40       	sbci	r24, 0x00	; 0
 24a:	90 40       	sbci	r25, 0x00	; 0
 24c:	e1 f7       	brne	.-8      	; 0x246 <tetris+0x1d2>
 24e:	00 c0       	rjmp	.+0      	; 0x250 <tetris+0x1dc>
 250:	00 00       	nop
	_delay_ms(MS_BLACK);
	silence();
 252:	0e 94 a1 02 	call	0x542	; 0x542 <silence>
 256:	2f ef       	ldi	r18, 0xFF	; 255
 258:	89 ef       	ldi	r24, 0xF9	; 249
 25a:	90 e0       	ldi	r25, 0x00	; 0
 25c:	21 50       	subi	r18, 0x01	; 1
 25e:	80 40       	sbci	r24, 0x00	; 0
 260:	90 40       	sbci	r25, 0x00	; 0
 262:	e1 f7       	brne	.-8      	; 0x25c <tetris+0x1e8>
 264:	00 c0       	rjmp	.+0      	; 0x266 <tetris+0x1f2>
 266:	00 00       	nop
	_delay_ms(20);
	sound();
 268:	0e 94 a5 02 	call	0x54a	; 0x54a <sound>
	a3();
 26c:	0e 94 49 02 	call	0x492	; 0x492 <a3>
 270:	2f ef       	ldi	r18, 0xFF	; 255
 272:	8f e0       	ldi	r24, 0x0F	; 15
 274:	97 e2       	ldi	r25, 0x27	; 39
 276:	21 50       	subi	r18, 0x01	; 1
 278:	80 40       	sbci	r24, 0x00	; 0
 27a:	90 40       	sbci	r25, 0x00	; 0
 27c:	e1 f7       	brne	.-8      	; 0x276 <tetris+0x202>
 27e:	00 c0       	rjmp	.+0      	; 0x280 <tetris+0x20c>
 280:	00 00       	nop
	_delay_ms(MS_DOUBLE);
	// 5
	d4();
 282:	0e 94 6a 02 	call	0x4d4	; 0x4d4 <d4>
 286:	2f ef       	ldi	r18, 0xFF	; 255
 288:	87 e8       	ldi	r24, 0x87	; 135
 28a:	93 e1       	ldi	r25, 0x13	; 19
 28c:	21 50       	subi	r18, 0x01	; 1
 28e:	80 40       	sbci	r24, 0x00	; 0
 290:	90 40       	sbci	r25, 0x00	; 0
 292:	e1 f7       	brne	.-8      	; 0x28c <tetris+0x218>
 294:	00 c0       	rjmp	.+0      	; 0x296 <tetris+0x222>
 296:	00 00       	nop
	_delay_ms(MS_BLACK);
	f4();
 298:	0e 94 80 02 	call	0x500	; 0x500 <f4>
 29c:	2f ef       	ldi	r18, 0xFF	; 255
 29e:	83 ec       	ldi	r24, 0xC3	; 195
 2a0:	99 e0       	ldi	r25, 0x09	; 9
 2a2:	21 50       	subi	r18, 0x01	; 1
 2a4:	80 40       	sbci	r24, 0x00	; 0
 2a6:	90 40       	sbci	r25, 0x00	; 0
 2a8:	e1 f7       	brne	.-8      	; 0x2a2 <tetris+0x22e>
 2aa:	00 c0       	rjmp	.+0      	; 0x2ac <tetris+0x238>
 2ac:	00 00       	nop
	_delay_ms(MS_HALF);
	a4();
 2ae:	0e 94 96 02 	call	0x52c	; 0x52c <a4>
 2b2:	2f ef       	ldi	r18, 0xFF	; 255
 2b4:	87 e8       	ldi	r24, 0x87	; 135
 2b6:	93 e1       	ldi	r25, 0x13	; 19
 2b8:	21 50       	subi	r18, 0x01	; 1
 2ba:	80 40       	sbci	r24, 0x00	; 0
 2bc:	90 40       	sbci	r25, 0x00	; 0
 2be:	e1 f7       	brne	.-8      	; 0x2b8 <tetris+0x244>
 2c0:	00 c0       	rjmp	.+0      	; 0x2c2 <tetris+0x24e>
 2c2:	00 00       	nop
	_delay_ms(MS_BLACK);
	g4();
 2c4:	0e 94 8b 02 	call	0x516	; 0x516 <g4>
 2c8:	2f ef       	ldi	r18, 0xFF	; 255
 2ca:	83 ec       	ldi	r24, 0xC3	; 195
 2cc:	99 e0       	ldi	r25, 0x09	; 9
 2ce:	21 50       	subi	r18, 0x01	; 1
 2d0:	80 40       	sbci	r24, 0x00	; 0
 2d2:	90 40       	sbci	r25, 0x00	; 0
 2d4:	e1 f7       	brne	.-8      	; 0x2ce <tetris+0x25a>
 2d6:	00 c0       	rjmp	.+0      	; 0x2d8 <tetris+0x264>
 2d8:	00 00       	nop
	_delay_ms(MS_HALF);
	f4();
 2da:	0e 94 80 02 	call	0x500	; 0x500 <f4>
 2de:	2f ef       	ldi	r18, 0xFF	; 255
 2e0:	83 ec       	ldi	r24, 0xC3	; 195
 2e2:	99 e0       	ldi	r25, 0x09	; 9
 2e4:	21 50       	subi	r18, 0x01	; 1
 2e6:	80 40       	sbci	r24, 0x00	; 0
 2e8:	90 40       	sbci	r25, 0x00	; 0
 2ea:	e1 f7       	brne	.-8      	; 0x2e4 <tetris+0x270>
 2ec:	00 c0       	rjmp	.+0      	; 0x2ee <tetris+0x27a>
 2ee:	00 00       	nop
	_delay_ms(MS_HALF);
	// 6
	e4();
 2f0:	0e 94 75 02 	call	0x4ea	; 0x4ea <e4>
 2f4:	2f ef       	ldi	r18, 0xFF	; 255
 2f6:	87 e8       	ldi	r24, 0x87	; 135
 2f8:	93 e1       	ldi	r25, 0x13	; 19
 2fa:	21 50       	subi	r18, 0x01	; 1
 2fc:	80 40       	sbci	r24, 0x00	; 0
 2fe:	90 40       	sbci	r25, 0x00	; 0
 300:	e1 f7       	brne	.-8      	; 0x2fa <tetris+0x286>
 302:	00 c0       	rjmp	.+0      	; 0x304 <tetris+0x290>
 304:	00 00       	nop
 306:	2f ef       	ldi	r18, 0xFF	; 255
 308:	83 ec       	ldi	r24, 0xC3	; 195
 30a:	99 e0       	ldi	r25, 0x09	; 9
 30c:	21 50       	subi	r18, 0x01	; 1
 30e:	80 40       	sbci	r24, 0x00	; 0
 310:	90 40       	sbci	r25, 0x00	; 0
 312:	e1 f7       	brne	.-8      	; 0x30c <tetris+0x298>
 314:	00 c0       	rjmp	.+0      	; 0x316 <tetris+0x2a2>
 316:	00 00       	nop
	_delay_ms(MS_BLACK);
	_delay_ms(MS_HALF);
	c4();
 318:	0e 94 5f 02 	call	0x4be	; 0x4be <c4>
 31c:	2f ef       	ldi	r18, 0xFF	; 255
 31e:	83 ec       	ldi	r24, 0xC3	; 195
 320:	99 e0       	ldi	r25, 0x09	; 9
 322:	21 50       	subi	r18, 0x01	; 1
 324:	80 40       	sbci	r24, 0x00	; 0
 326:	90 40       	sbci	r25, 0x00	; 0
 328:	e1 f7       	brne	.-8      	; 0x322 <tetris+0x2ae>
 32a:	00 c0       	rjmp	.+0      	; 0x32c <tetris+0x2b8>
 32c:	00 00       	nop
	_delay_ms(MS_HALF);
	e4();
 32e:	0e 94 75 02 	call	0x4ea	; 0x4ea <e4>
 332:	2f ef       	ldi	r18, 0xFF	; 255
 334:	87 e8       	ldi	r24, 0x87	; 135
 336:	93 e1       	ldi	r25, 0x13	; 19
 338:	21 50       	subi	r18, 0x01	; 1
 33a:	80 40       	sbci	r24, 0x00	; 0
 33c:	90 40       	sbci	r25, 0x00	; 0
 33e:	e1 f7       	brne	.-8      	; 0x338 <tetris+0x2c4>
 340:	00 c0       	rjmp	.+0      	; 0x342 <tetris+0x2ce>
 342:	00 00       	nop
	_delay_ms(MS_BLACK);
	d4();
 344:	0e 94 6a 02 	call	0x4d4	; 0x4d4 <d4>
 348:	2f ef       	ldi	r18, 0xFF	; 255
 34a:	83 ec       	ldi	r24, 0xC3	; 195
 34c:	99 e0       	ldi	r25, 0x09	; 9
 34e:	21 50       	subi	r18, 0x01	; 1
 350:	80 40       	sbci	r24, 0x00	; 0
 352:	90 40       	sbci	r25, 0x00	; 0
 354:	e1 f7       	brne	.-8      	; 0x34e <tetris+0x2da>
 356:	00 c0       	rjmp	.+0      	; 0x358 <tetris+0x2e4>
 358:	00 00       	nop
	_delay_ms(MS_HALF);
	c4();
 35a:	0e 94 5f 02 	call	0x4be	; 0x4be <c4>
 35e:	2f ef       	ldi	r18, 0xFF	; 255
 360:	83 ec       	ldi	r24, 0xC3	; 195
 362:	99 e0       	ldi	r25, 0x09	; 9
 364:	21 50       	subi	r18, 0x01	; 1
 366:	80 40       	sbci	r24, 0x00	; 0
 368:	90 40       	sbci	r25, 0x00	; 0
 36a:	e1 f7       	brne	.-8      	; 0x364 <tetris+0x2f0>
 36c:	00 c0       	rjmp	.+0      	; 0x36e <tetris+0x2fa>
 36e:	00 00       	nop
	_delay_ms(MS_HALF);
	// 7 
	b3();
 370:	0e 94 54 02 	call	0x4a8	; 0x4a8 <b3>
 374:	2f ef       	ldi	r18, 0xFF	; 255
 376:	87 e8       	ldi	r24, 0x87	; 135
 378:	93 e1       	ldi	r25, 0x13	; 19
 37a:	21 50       	subi	r18, 0x01	; 1
 37c:	80 40       	sbci	r24, 0x00	; 0
 37e:	90 40       	sbci	r25, 0x00	; 0
 380:	e1 f7       	brne	.-8      	; 0x37a <tetris+0x306>
 382:	00 c0       	rjmp	.+0      	; 0x384 <tetris+0x310>
 384:	00 00       	nop
	_delay_ms(MS_BLACK);
	silence();
 386:	0e 94 a1 02 	call	0x542	; 0x542 <silence>
 38a:	2f ef       	ldi	r18, 0xFF	; 255
 38c:	89 ef       	ldi	r24, 0xF9	; 249
 38e:	90 e0       	ldi	r25, 0x00	; 0
 390:	21 50       	subi	r18, 0x01	; 1
 392:	80 40       	sbci	r24, 0x00	; 0
 394:	90 40       	sbci	r25, 0x00	; 0
 396:	e1 f7       	brne	.-8      	; 0x390 <tetris+0x31c>
 398:	00 c0       	rjmp	.+0      	; 0x39a <tetris+0x326>
 39a:	00 00       	nop
	_delay_ms(20);
	sound();
 39c:	0e 94 a5 02 	call	0x54a	; 0x54a <sound>
	b3();
 3a0:	0e 94 54 02 	call	0x4a8	; 0x4a8 <b3>
 3a4:	2f ef       	ldi	r18, 0xFF	; 255
 3a6:	83 ec       	ldi	r24, 0xC3	; 195
 3a8:	99 e0       	ldi	r25, 0x09	; 9
 3aa:	21 50       	subi	r18, 0x01	; 1
 3ac:	80 40       	sbci	r24, 0x00	; 0
 3ae:	90 40       	sbci	r25, 0x00	; 0
 3b0:	e1 f7       	brne	.-8      	; 0x3aa <tetris+0x336>
 3b2:	00 c0       	rjmp	.+0      	; 0x3b4 <tetris+0x340>
 3b4:	00 00       	nop
	_delay_ms(MS_HALF);
	c4();
 3b6:	0e 94 5f 02 	call	0x4be	; 0x4be <c4>
 3ba:	2f ef       	ldi	r18, 0xFF	; 255
 3bc:	83 ec       	ldi	r24, 0xC3	; 195
 3be:	99 e0       	ldi	r25, 0x09	; 9
 3c0:	21 50       	subi	r18, 0x01	; 1
 3c2:	80 40       	sbci	r24, 0x00	; 0
 3c4:	90 40       	sbci	r25, 0x00	; 0
 3c6:	e1 f7       	brne	.-8      	; 0x3c0 <tetris+0x34c>
 3c8:	00 c0       	rjmp	.+0      	; 0x3ca <tetris+0x356>
 3ca:	00 00       	nop
	_delay_ms(MS_HALF);
	d4();
 3cc:	0e 94 6a 02 	call	0x4d4	; 0x4d4 <d4>
 3d0:	2f ef       	ldi	r18, 0xFF	; 255
 3d2:	87 e8       	ldi	r24, 0x87	; 135
 3d4:	93 e1       	ldi	r25, 0x13	; 19
 3d6:	21 50       	subi	r18, 0x01	; 1
 3d8:	80 40       	sbci	r24, 0x00	; 0
 3da:	90 40       	sbci	r25, 0x00	; 0
 3dc:	e1 f7       	brne	.-8      	; 0x3d6 <tetris+0x362>
 3de:	00 c0       	rjmp	.+0      	; 0x3e0 <tetris+0x36c>
 3e0:	00 00       	nop
	_delay_ms(MS_BLACK);
	e4();
 3e2:	0e 94 75 02 	call	0x4ea	; 0x4ea <e4>
 3e6:	2f ef       	ldi	r18, 0xFF	; 255
 3e8:	87 e8       	ldi	r24, 0x87	; 135
 3ea:	93 e1       	ldi	r25, 0x13	; 19
 3ec:	21 50       	subi	r18, 0x01	; 1
 3ee:	80 40       	sbci	r24, 0x00	; 0
 3f0:	90 40       	sbci	r25, 0x00	; 0
 3f2:	e1 f7       	brne	.-8      	; 0x3ec <tetris+0x378>
 3f4:	00 c0       	rjmp	.+0      	; 0x3f6 <tetris+0x382>
 3f6:	00 00       	nop
	_delay_ms(MS_BLACK);
	// 8
	c4();
 3f8:	0e 94 5f 02 	call	0x4be	; 0x4be <c4>
 3fc:	2f ef       	ldi	r18, 0xFF	; 255
 3fe:	87 e8       	ldi	r24, 0x87	; 135
 400:	93 e1       	ldi	r25, 0x13	; 19
 402:	21 50       	subi	r18, 0x01	; 1
 404:	80 40       	sbci	r24, 0x00	; 0
 406:	90 40       	sbci	r25, 0x00	; 0
 408:	e1 f7       	brne	.-8      	; 0x402 <__LOCK_REGION_LENGTH__+0x2>
 40a:	00 c0       	rjmp	.+0      	; 0x40c <__LOCK_REGION_LENGTH__+0xc>
 40c:	00 00       	nop
	_delay_ms(MS_BLACK);
	a3();
 40e:	0e 94 49 02 	call	0x492	; 0x492 <a3>
 412:	2f ef       	ldi	r18, 0xFF	; 255
 414:	87 e8       	ldi	r24, 0x87	; 135
 416:	93 e1       	ldi	r25, 0x13	; 19
 418:	21 50       	subi	r18, 0x01	; 1
 41a:	80 40       	sbci	r24, 0x00	; 0
 41c:	90 40       	sbci	r25, 0x00	; 0
 41e:	e1 f7       	brne	.-8      	; 0x418 <__LOCK_REGION_LENGTH__+0x18>
 420:	00 c0       	rjmp	.+0      	; 0x422 <__LOCK_REGION_LENGTH__+0x22>
 422:	00 00       	nop
	_delay_ms(MS_BLACK);
	silence();
 424:	0e 94 a1 02 	call	0x542	; 0x542 <silence>
 428:	2f ef       	ldi	r18, 0xFF	; 255
 42a:	89 ef       	ldi	r24, 0xF9	; 249
 42c:	90 e0       	ldi	r25, 0x00	; 0
 42e:	21 50       	subi	r18, 0x01	; 1
 430:	80 40       	sbci	r24, 0x00	; 0
 432:	90 40       	sbci	r25, 0x00	; 0
 434:	e1 f7       	brne	.-8      	; 0x42e <__LOCK_REGION_LENGTH__+0x2e>
 436:	00 c0       	rjmp	.+0      	; 0x438 <__LOCK_REGION_LENGTH__+0x38>
 438:	00 00       	nop
	_delay_ms(20);
	sound();
 43a:	0e 94 a5 02 	call	0x54a	; 0x54a <sound>
	a3();
 43e:	0e 94 49 02 	call	0x492	; 0x492 <a3>
 442:	2f ef       	ldi	r18, 0xFF	; 255
 444:	8f e0       	ldi	r24, 0x0F	; 15
 446:	97 e2       	ldi	r25, 0x27	; 39
 448:	21 50       	subi	r18, 0x01	; 1
 44a:	80 40       	sbci	r24, 0x00	; 0
 44c:	90 40       	sbci	r25, 0x00	; 0
 44e:	e1 f7       	brne	.-8      	; 0x448 <__LOCK_REGION_LENGTH__+0x48>
 450:	00 c0       	rjmp	.+0      	; 0x452 <__LOCK_REGION_LENGTH__+0x52>
 452:	00 00       	nop
	_delay_ms(MS_DOUBLE);
	
	return 0;
}
 454:	80 e0       	ldi	r24, 0x00	; 0
 456:	90 e0       	ldi	r25, 0x00	; 0
 458:	08 95       	ret

0000045a <main>:
	//setupLed();
	//setupTimer0FreqGen(0);
	
	while(1)
	{		
		tetris();
 45a:	0e 94 3a 00 	call	0x74	; 0x74 <tetris>
 45e:	fd cf       	rjmp	.-6      	; 0x45a <main>

00000460 <setupTimer0FreqGen>:
	// CS00:2 = 3 -> 64
	// CS00:2 = 4 -> 256
	OCR0A = 132;
	//_delay_ms(mSeconds); 
	return 0;
}
 460:	56 9a       	sbi	0x0a, 6	; 10
 462:	e4 e6       	ldi	r30, 0x64	; 100
 464:	f0 e0       	ldi	r31, 0x00	; 0
 466:	20 81       	ld	r18, Z
 468:	2f 7d       	andi	r18, 0xDF	; 223
 46a:	20 83       	st	Z, r18
 46c:	24 b5       	in	r18, 0x24	; 36
 46e:	22 64       	ori	r18, 0x42	; 66
 470:	24 bd       	out	0x24, r18	; 36
 472:	25 b5       	in	r18, 0x25	; 37
 474:	24 60       	ori	r18, 0x04	; 4
 476:	25 bd       	out	0x25, r18	; 37
 478:	89 2b       	or	r24, r25
 47a:	41 f0       	breq	.+16     	; 0x48c <setupTimer0FreqGen+0x2c>
 47c:	8f b7       	in	r24, 0x3f	; 63
 47e:	80 68       	ori	r24, 0x80	; 128
 480:	8f bf       	out	0x3f, r24	; 63
 482:	ee e6       	ldi	r30, 0x6E	; 110
 484:	f0 e0       	ldi	r31, 0x00	; 0
 486:	80 81       	ld	r24, Z
 488:	82 60       	ori	r24, 0x02	; 2
 48a:	80 83       	st	Z, r24
 48c:	80 e0       	ldi	r24, 0x00	; 0
 48e:	90 e0       	ldi	r25, 0x00	; 0
 490:	08 95       	ret

00000492 <a3>:
 492:	85 b5       	in	r24, 0x25	; 37
 494:	88 7f       	andi	r24, 0xF8	; 248
 496:	85 bd       	out	0x25, r24	; 37
 498:	85 b5       	in	r24, 0x25	; 37
 49a:	84 60       	ori	r24, 0x04	; 4
 49c:	85 bd       	out	0x25, r24	; 37
 49e:	84 e9       	ldi	r24, 0x94	; 148
 4a0:	87 bd       	out	0x27, r24	; 39
 4a2:	80 e0       	ldi	r24, 0x00	; 0
 4a4:	90 e0       	ldi	r25, 0x00	; 0
 4a6:	08 95       	ret

000004a8 <b3>:
 4a8:	85 b5       	in	r24, 0x25	; 37
 4aa:	88 7f       	andi	r24, 0xF8	; 248
 4ac:	85 bd       	out	0x25, r24	; 37
 4ae:	85 b5       	in	r24, 0x25	; 37
 4b0:	84 60       	ori	r24, 0x04	; 4
 4b2:	85 bd       	out	0x25, r24	; 37
 4b4:	84 e8       	ldi	r24, 0x84	; 132
 4b6:	87 bd       	out	0x27, r24	; 39
 4b8:	80 e0       	ldi	r24, 0x00	; 0
 4ba:	90 e0       	ldi	r25, 0x00	; 0
 4bc:	08 95       	ret

000004be <c4>:
 4be:	85 b5       	in	r24, 0x25	; 37
 4c0:	88 7f       	andi	r24, 0xF8	; 248
 4c2:	85 bd       	out	0x25, r24	; 37
 4c4:	85 b5       	in	r24, 0x25	; 37
 4c6:	84 60       	ori	r24, 0x04	; 4
 4c8:	85 bd       	out	0x25, r24	; 37
 4ca:	8c e7       	ldi	r24, 0x7C	; 124
 4cc:	87 bd       	out	0x27, r24	; 39
 4ce:	80 e0       	ldi	r24, 0x00	; 0
 4d0:	90 e0       	ldi	r25, 0x00	; 0
 4d2:	08 95       	ret

000004d4 <d4>:
 4d4:	85 b5       	in	r24, 0x25	; 37
 4d6:	88 7f       	andi	r24, 0xF8	; 248
 4d8:	85 bd       	out	0x25, r24	; 37
 4da:	85 b5       	in	r24, 0x25	; 37
 4dc:	84 60       	ori	r24, 0x04	; 4
 4de:	85 bd       	out	0x25, r24	; 37
 4e0:	8f e6       	ldi	r24, 0x6F	; 111
 4e2:	87 bd       	out	0x27, r24	; 39
 4e4:	80 e0       	ldi	r24, 0x00	; 0
 4e6:	90 e0       	ldi	r25, 0x00	; 0
 4e8:	08 95       	ret

000004ea <e4>:
 4ea:	85 b5       	in	r24, 0x25	; 37
 4ec:	88 7f       	andi	r24, 0xF8	; 248
 4ee:	85 bd       	out	0x25, r24	; 37
 4f0:	85 b5       	in	r24, 0x25	; 37
 4f2:	84 60       	ori	r24, 0x04	; 4
 4f4:	85 bd       	out	0x25, r24	; 37
 4f6:	82 e6       	ldi	r24, 0x62	; 98
 4f8:	87 bd       	out	0x27, r24	; 39
 4fa:	80 e0       	ldi	r24, 0x00	; 0
 4fc:	90 e0       	ldi	r25, 0x00	; 0
 4fe:	08 95       	ret

00000500 <f4>:
 500:	85 b5       	in	r24, 0x25	; 37
 502:	88 7f       	andi	r24, 0xF8	; 248
 504:	85 bd       	out	0x25, r24	; 37
 506:	85 b5       	in	r24, 0x25	; 37
 508:	84 60       	ori	r24, 0x04	; 4
 50a:	85 bd       	out	0x25, r24	; 37
 50c:	8d e5       	ldi	r24, 0x5D	; 93
 50e:	87 bd       	out	0x27, r24	; 39
 510:	80 e0       	ldi	r24, 0x00	; 0
 512:	90 e0       	ldi	r25, 0x00	; 0
 514:	08 95       	ret

00000516 <g4>:
 516:	85 b5       	in	r24, 0x25	; 37
 518:	88 7f       	andi	r24, 0xF8	; 248
 51a:	85 bd       	out	0x25, r24	; 37
 51c:	85 b5       	in	r24, 0x25	; 37
 51e:	84 60       	ori	r24, 0x04	; 4
 520:	85 bd       	out	0x25, r24	; 37
 522:	83 e5       	ldi	r24, 0x53	; 83
 524:	87 bd       	out	0x27, r24	; 39
 526:	80 e0       	ldi	r24, 0x00	; 0
 528:	90 e0       	ldi	r25, 0x00	; 0
 52a:	08 95       	ret

0000052c <a4>:
 52c:	85 b5       	in	r24, 0x25	; 37
 52e:	88 7f       	andi	r24, 0xF8	; 248
 530:	85 bd       	out	0x25, r24	; 37
 532:	85 b5       	in	r24, 0x25	; 37
 534:	84 60       	ori	r24, 0x04	; 4
 536:	85 bd       	out	0x25, r24	; 37
 538:	89 e4       	ldi	r24, 0x49	; 73
 53a:	87 bd       	out	0x27, r24	; 39
 53c:	80 e0       	ldi	r24, 0x00	; 0
 53e:	90 e0       	ldi	r25, 0x00	; 0
 540:	08 95       	ret

00000542 <silence>:

int silence(){
	DDRD &= 0B10111111; // PD6 set to INPUT
 542:	56 98       	cbi	0x0a, 6	; 10
	return 0;
}
 544:	80 e0       	ldi	r24, 0x00	; 0
 546:	90 e0       	ldi	r25, 0x00	; 0
 548:	08 95       	ret

0000054a <sound>:

int sound(){
	DDRD |= 0B01000000; // PD6 set to OUTPUT
 54a:	56 9a       	sbi	0x0a, 6	; 10
	return 0;
}
 54c:	80 e0       	ldi	r24, 0x00	; 0
 54e:	90 e0       	ldi	r25, 0x00	; 0
 550:	08 95       	ret

00000552 <_exit>:
 552:	f8 94       	cli

00000554 <__stop_program>:
 554:	ff cf       	rjmp	.-2      	; 0x554 <__stop_program>
